target datalayout = "e-m:e-p270:32:32-p271:32:32-p272:64:64-i64:64-i128:128-f80:128-n8:16:32:64-S128"
target triple = "x86_64-pc-linux-gnu"

%struct.tsi_fake_frame = type { ptr, i64, i64, i64, i32 }
%"class.std::__cxx11::basic_string" = type { %"struct.std::__cxx11::basic_string<char>::_Alloc_hider", i64, %union.anon }
%"struct.std::__cxx11::basic_string<char>::_Alloc_hider" = type { ptr }
%union.anon = type { i64, [8 x i8] }

@.str.12 = private unnamed_addr constant [37 x i8] c"fake handshaker frame needs draining\00", align 1

; Function Attrs: mustprogress nounwind uwtable
define linkonce_odr noundef i64 @_ZNSt11char_traitsIcE6lengthEPKc(ptr noundef %0) #7 comdat align 2 {
  %2 = alloca ptr, align 8
  store ptr %0, ptr %2, align 8, !tbaa !12
  %3 = load ptr, ptr %2, align 8, !tbaa !12
  %4 = call i64 @strlen(ptr noundef %3) #3
  ret i64 %4
}

; Function Attrs: mustprogress nounwind uwtable
define available_externally noundef i64 @_ZNKSt7__cxx1112basic_stringIcSt11char_traitsIcESaIcEE4sizeEv(ptr noundef nonnull align 8 dereferenceable(32) %0) #7 align 2 {
  %2 = alloca ptr, align 8
  store ptr %0, ptr %2, align 8, !tbaa !25
  %3 = load ptr, ptr %2, align 8
  %4 = getelementptr inbounds nuw %"class.std::__cxx11::basic_string", ptr %3, i32 0, i32 1
  %5 = load i64, ptr %4, align 8, !tbaa !87
  ret i64 %5
}

; Function Attrs: mustprogress uwtable
define available_externally noundef nonnull align 8 dereferenceable(32) ptr @_ZNSt7__cxx1112basic_stringIcSt11char_traitsIcESaIcEE6assignEPKc(ptr noundef nonnull align 8 dereferenceable(32) %0, ptr noundef %1) #4 align 2 {
  %3 = alloca ptr, align 8
  %4 = alloca ptr, align 8
  store ptr %0, ptr %3, align 8, !tbaa !25
  store ptr %1, ptr %4, align 8, !tbaa !12
  %5 = load ptr, ptr %3, align 8
  %6 = call noundef i64 @_ZNKSt7__cxx1112basic_stringIcSt11char_traitsIcESaIcEE4sizeEv(ptr noundef nonnull align 8 dereferenceable(32) %5) #3
  %7 = load ptr, ptr %4, align 8, !tbaa !12
  %8 = load ptr, ptr %4, align 8, !tbaa !12
  %9 = call noundef i64 @_ZNSt11char_traitsIcE6lengthEPKc(ptr noundef %8)
  %10 = call noundef nonnull align 8 dereferenceable(32) ptr @_ZNSt7__cxx1112basic_stringIcSt11char_traitsIcESaIcEE10_M_replaceEmmPKcm(ptr noundef nonnull align 8 dereferenceable(32) %5, i64 noundef 0, i64 noundef %6, ptr noundef %7, i64 noundef %9)
  ret ptr %10
}

; Function Attrs: mustprogress nounwind uwtable
define internal void @_ZL20tsi_fake_frame_resetP14tsi_fake_framei(ptr noundef %0, i32 noundef %1) #7 {
  %3 = alloca ptr, align 8
  %4 = alloca i32, align 4
  store ptr %0, ptr %3, align 8, !tbaa !105
  store i32 %1, ptr %4, align 4, !tbaa !23
  %5 = load ptr, ptr %3, align 8, !tbaa !105
  %6 = getelementptr inbounds nuw %struct.tsi_fake_frame, ptr %5, i32 0, i32 3
  store i64 0, ptr %6, align 8, !tbaa !121
  %7 = load i32, ptr %4, align 4, !tbaa !23
  %8 = load ptr, ptr %3, align 8, !tbaa !105
  %9 = getelementptr inbounds nuw %struct.tsi_fake_frame, ptr %8, i32 0, i32 4
  store i32 %7, ptr %9, align 8, !tbaa !119
  %10 = load i32, ptr %4, align 4, !tbaa !23
  %11 = icmp ne i32 %10, 0
  br i1 %11, label %15, label %12

12:                                               ; preds = %2
  %13 = load ptr, ptr %3, align 8, !tbaa !105
  %14 = getelementptr inbounds nuw %struct.tsi_fake_frame, ptr %13, i32 0, i32 1
  store i64 0, ptr %14, align 8, !tbaa !122
  br label %15

15:                                               ; preds = %12, %2
  ret void
}

; Function Attrs: mustprogress uwtable
define internal void @_ZL26tsi_fake_frame_ensure_sizeP14tsi_fake_frame(ptr noundef %0) #4 {
  %2 = alloca ptr, align 8
  %3 = alloca ptr, align 8
  store ptr %0, ptr %2, align 8, !tbaa !105
  %4 = load ptr, ptr %2, align 8, !tbaa !105
  %5 = getelementptr inbounds nuw %struct.tsi_fake_frame, ptr %4, i32 0, i32 0
  %6 = load ptr, ptr %5, align 8, !tbaa !107
  %7 = icmp eq ptr %6, null
  br i1 %7, label %8, label %20

8:                                                ; preds = %1
  %9 = load ptr, ptr %2, align 8, !tbaa !105
  %10 = getelementptr inbounds nuw %struct.tsi_fake_frame, ptr %9, i32 0, i32 1
  %11 = load i64, ptr %10, align 8, !tbaa !122
  %12 = load ptr, ptr %2, align 8, !tbaa !105
  %13 = getelementptr inbounds nuw %struct.tsi_fake_frame, ptr %12, i32 0, i32 2
  store i64 %11, ptr %13, align 8, !tbaa !120
  %14 = load ptr, ptr %2, align 8, !tbaa !105
  %15 = getelementptr inbounds nuw %struct.tsi_fake_frame, ptr %14, i32 0, i32 2
  %16 = load i64, ptr %15, align 8, !tbaa !120
  %17 = call ptr @gpr_malloc(i64 noundef %16)
  %18 = load ptr, ptr %2, align 8, !tbaa !105
  %19 = getelementptr inbounds nuw %struct.tsi_fake_frame, ptr %18, i32 0, i32 0
  store ptr %17, ptr %19, align 8, !tbaa !107
  br label %45

20:                                               ; preds = %1
  %21 = load ptr, ptr %2, align 8, !tbaa !105
  %22 = getelementptr inbounds nuw %struct.tsi_fake_frame, ptr %21, i32 0, i32 1
  %23 = load i64, ptr %22, align 8, !tbaa !122
  %24 = load ptr, ptr %2, align 8, !tbaa !105
  %25 = getelementptr inbounds nuw %struct.tsi_fake_frame, ptr %24, i32 0, i32 2
  %26 = load i64, ptr %25, align 8, !tbaa !120
  %27 = icmp ugt i64 %23, %26
  br i1 %27, label %28, label %44

28:                                               ; preds = %20
  call void @llvm.lifetime.start.p0(i64 8, ptr %3) #3
  %29 = load ptr, ptr %2, align 8, !tbaa !105
  %30 = getelementptr inbounds nuw %struct.tsi_fake_frame, ptr %29, i32 0, i32 0
  %31 = load ptr, ptr %30, align 8, !tbaa !107
  %32 = load ptr, ptr %2, align 8, !tbaa !105
  %33 = getelementptr inbounds nuw %struct.tsi_fake_frame, ptr %32, i32 0, i32 1
  %34 = load i64, ptr %33, align 8, !tbaa !122
  %35 = call ptr @gpr_realloc(ptr noundef %31, i64 noundef %34)
  store ptr %35, ptr %3, align 8, !tbaa !12
  %36 = load ptr, ptr %3, align 8, !tbaa !12
  %37 = load ptr, ptr %2, align 8, !tbaa !105
  %38 = getelementptr inbounds nuw %struct.tsi_fake_frame, ptr %37, i32 0, i32 0
  store ptr %36, ptr %38, align 8, !tbaa !107
  %39 = load ptr, ptr %2, align 8, !tbaa !105
  %40 = getelementptr inbounds nuw %struct.tsi_fake_frame, ptr %39, i32 0, i32 1
  %41 = load i64, ptr %40, align 8, !tbaa !122
  %42 = load ptr, ptr %2, align 8, !tbaa !105
  %43 = getelementptr inbounds nuw %struct.tsi_fake_frame, ptr %42, i32 0, i32 2
  store i64 %41, ptr %43, align 8, !tbaa !120
  call void @llvm.lifetime.end.p0(i64 8, ptr %3) #3
  br label %44

44:                                               ; preds = %28, %20
  br label %45

45:                                               ; preds = %44, %8
  ret void
}

; Function Attrs: mustprogress nounwind uwtable
define internal noundef i32 @_ZL20load32_little_endianPKh(ptr noundef %0) #7 {
  %2 = alloca ptr, align 8
  store ptr %0, ptr %2, align 8, !tbaa !12
  %3 = load ptr, ptr %2, align 8, !tbaa !12
  %4 = getelementptr inbounds i8, ptr %3, i64 0
  %5 = load i8, ptr %4, align 1, !tbaa !20
  %6 = zext i8 %5 to i32
  %7 = load ptr, ptr %2, align 8, !tbaa !12
  %8 = getelementptr inbounds i8, ptr %7, i64 1
  %9 = load i8, ptr %8, align 1, !tbaa !20
  %10 = zext i8 %9 to i32
  %11 = shl i32 %10, 8
  %12 = or i32 %6, %11
  %13 = load ptr, ptr %2, align 8, !tbaa !12
  %14 = getelementptr inbounds i8, ptr %13, i64 2
  %15 = load i8, ptr %14, align 1, !tbaa !20
  %16 = zext i8 %15 to i32
  %17 = shl i32 %16, 16
  %18 = or i32 %12, %17
  %19 = load ptr, ptr %2, align 8, !tbaa !12
  %20 = getelementptr inbounds i8, ptr %19, i64 3
  %21 = load i8, ptr %20, align 1, !tbaa !20
  %22 = zext i8 %21 to i32
  %23 = shl i32 %22, 24
  %24 = or i32 %18, %23
  ret i32 %24
}

; Function Attrs: mustprogress uwtable
define available_externally noundef nonnull align 8 dereferenceable(32) ptr @_ZNSt7__cxx1112basic_stringIcSt11char_traitsIcESaIcEEaSEPKc(ptr noundef nonnull align 8 dereferenceable(32) %0, ptr noundef %1) #4 align 2 {
  %3 = alloca ptr, align 8
  %4 = alloca ptr, align 8
  store ptr %0, ptr %3, align 8, !tbaa !25
  store ptr %1, ptr %4, align 8, !tbaa !12
  %5 = load ptr, ptr %3, align 8
  %6 = load ptr, ptr %4, align 8, !tbaa !12
  %7 = call noundef nonnull align 8 dereferenceable(32) ptr @_ZNSt7__cxx1112basic_stringIcSt11char_traitsIcESaIcEE6assignEPKc(ptr noundef nonnull align 8 dereferenceable(32) %5, ptr noundef %6)
  ret ptr %7
}

; Function Attrs: mustprogress uwtable
define internal noundef i32 @_ZL21tsi_fake_frame_decodePKhPmP14tsi_fake_framePNSt7__cxx1112basic_stringIcSt11char_traitsIcESaIcEEE(ptr noundef %0, ptr noundef %1, ptr noundef %2, ptr noundef %3) #4 {
  %5 = alloca i32, align 4
  %6 = alloca ptr, align 8
  %7 = alloca ptr, align 8
  %8 = alloca ptr, align 8
  %9 = alloca ptr, align 8
  %10 = alloca i64, align 8
  %11 = alloca i64, align 8
  %12 = alloca ptr, align 8
  %13 = alloca i32, align 4
  store ptr %0, ptr %6, align 8, !tbaa !12
  store ptr %1, ptr %7, align 8, !tbaa !43
  store ptr %2, ptr %8, align 8, !tbaa !105
  store ptr %3, ptr %9, align 8, !tbaa !25
  call void @llvm.lifetime.start.p0(i64 8, ptr %10) #3
  %14 = load ptr, ptr %7, align 8, !tbaa !43
  %15 = load i64, ptr %14, align 8, !tbaa !14
  store i64 %15, ptr %10, align 8, !tbaa !14
  call void @llvm.lifetime.start.p0(i64 8, ptr %11) #3
  store i64 0, ptr %11, align 8, !tbaa !14
  call void @llvm.lifetime.start.p0(i64 8, ptr %12) #3
  %16 = load ptr, ptr %6, align 8, !tbaa !12
  store ptr %16, ptr %12, align 8, !tbaa !12
  %17 = load ptr, ptr %8, align 8, !tbaa !105
  %18 = getelementptr inbounds nuw %struct.tsi_fake_frame, ptr %17, i32 0, i32 4
  %19 = load i32, ptr %18, align 8, !tbaa !119
  %20 = icmp ne i32 %19, 0
  br i1 %20, label %21, label %28

21:                                               ; preds = %4
  %22 = load ptr, ptr %9, align 8, !tbaa !25
  %23 = icmp ne ptr %22, null
  br i1 %23, label %24, label %27

24:                                               ; preds = %21
  %25 = load ptr, ptr %9, align 8, !tbaa !25
  %26 = call noundef nonnull align 8 dereferenceable(32) ptr @_ZNSt7__cxx1112basic_stringIcSt11char_traitsIcESaIcEEaSEPKc(ptr noundef nonnull align 8 dereferenceable(32) %25, ptr noundef @.str.12)
  br label %27

27:                                               ; preds = %24, %21
  store i32 7, ptr %5, align 4
  store i32 1, ptr %13, align 4
  br label %181

28:                                               ; preds = %4
  %29 = load ptr, ptr %8, align 8, !tbaa !105
  %30 = getelementptr inbounds nuw %struct.tsi_fake_frame, ptr %29, i32 0, i32 0
  %31 = load ptr, ptr %30, align 8, !tbaa !107
  %32 = icmp eq ptr %31, null
  br i1 %32, label %33, label %48

33:                                               ; preds = %28
  %34 = load ptr, ptr %8, align 8, !tbaa !105
  %35 = getelementptr inbounds nuw %struct.tsi_fake_frame, ptr %34, i32 0, i32 2
  store i64 64, ptr %35, align 8, !tbaa !120
  %36 = load ptr, ptr %8, align 8, !tbaa !105
  %37 = getelementptr inbounds nuw %struct.tsi_fake_frame, ptr %36, i32 0, i32 2
  %38 = load i64, ptr %37, align 8, !tbaa !120
  %39 = call ptr @gpr_malloc(i64 noundef %38)
  %40 = load ptr, ptr %8, align 8, !tbaa !105
  %41 = getelementptr inbounds nuw %struct.tsi_fake_frame, ptr %40, i32 0, i32 0
  store ptr %39, ptr %41, align 8, !tbaa !107
  %42 = load ptr, ptr %8, align 8, !tbaa !105
  %43 = getelementptr inbounds nuw %struct.tsi_fake_frame, ptr %42, i32 0, i32 0
  %44 = load ptr, ptr %43, align 8, !tbaa !107
  %45 = load ptr, ptr %8, align 8, !tbaa !105
  %46 = getelementptr inbounds nuw %struct.tsi_fake_frame, ptr %45, i32 0, i32 2
  %47 = load i64, ptr %46, align 8, !tbaa !120
  call void @llvm.memset.p0.i64(ptr align 1 %44, i8 -85, i64 %47, i1 false)
  br label %48

48:                                               ; preds = %33, %28
  %49 = load ptr, ptr %8, align 8, !tbaa !105
  %50 = getelementptr inbounds nuw %struct.tsi_fake_frame, ptr %49, i32 0, i32 3
  %51 = load i64, ptr %50, align 8, !tbaa !121
  %52 = icmp ult i64 %51, 4
  br i1 %52, label %53, label %126

53:                                               ; preds = %48
  %54 = load ptr, ptr %8, align 8, !tbaa !105
  %55 = getelementptr inbounds nuw %struct.tsi_fake_frame, ptr %54, i32 0, i32 3
  %56 = load i64, ptr %55, align 8, !tbaa !121
  %57 = sub i64 4, %56
  store i64 %57, ptr %11, align 8, !tbaa !14
  %58 = load i64, ptr %11, align 8, !tbaa !14
  %59 = load i64, ptr %10, align 8, !tbaa !14
  %60 = icmp ugt i64 %58, %59
  br i1 %60, label %61, label %85

61:                                               ; preds = %53
  %62 = load ptr, ptr %8, align 8, !tbaa !105
  %63 = getelementptr inbounds nuw %struct.tsi_fake_frame, ptr %62, i32 0, i32 0
  %64 = load ptr, ptr %63, align 8, !tbaa !107
  %65 = load ptr, ptr %8, align 8, !tbaa !105
  %66 = getelementptr inbounds nuw %struct.tsi_fake_frame, ptr %65, i32 0, i32 3
  %67 = load i64, ptr %66, align 8, !tbaa !121
  %68 = getelementptr inbounds nuw i8, ptr %64, i64 %67
  %69 = load ptr, ptr %12, align 8, !tbaa !12
  %70 = load i64, ptr %10, align 8, !tbaa !14
  call void @llvm.memcpy.p0.p0.i64(ptr align 1 %68, ptr align 1 %69, i64 %70, i1 false)
  %71 = load i64, ptr %10, align 8, !tbaa !14
  %72 = load ptr, ptr %12, align 8, !tbaa !12
  %73 = getelementptr inbounds nuw i8, ptr %72, i64 %71
  store ptr %73, ptr %12, align 8, !tbaa !12
  %74 = load i64, ptr %10, align 8, !tbaa !14
  %75 = load ptr, ptr %8, align 8, !tbaa !105
  %76 = getelementptr inbounds nuw %struct.tsi_fake_frame, ptr %75, i32 0, i32 3
  %77 = load i64, ptr %76, align 8, !tbaa !121
  %78 = add i64 %77, %74
  store i64 %78, ptr %76, align 8, !tbaa !121
  %79 = load ptr, ptr %12, align 8, !tbaa !12
  %80 = load ptr, ptr %6, align 8, !tbaa !12
  %81 = ptrtoint ptr %79 to i64
  %82 = ptrtoint ptr %80 to i64
  %83 = sub i64 %81, %82
  %84 = load ptr, ptr %7, align 8, !tbaa !43
  store i64 %83, ptr %84, align 8, !tbaa !14
  store i32 4, ptr %5, align 4
  store i32 1, ptr %13, align 4
  br label %181

85:                                               ; preds = %53
  %86 = load ptr, ptr %8, align 8, !tbaa !105
  %87 = getelementptr inbounds nuw %struct.tsi_fake_frame, ptr %86, i32 0, i32 0
  %88 = load ptr, ptr %87, align 8, !tbaa !107
  %89 = load ptr, ptr %8, align 8, !tbaa !105
  %90 = getelementptr inbounds nuw %struct.tsi_fake_frame, ptr %89, i32 0, i32 3
  %91 = load i64, ptr %90, align 8, !tbaa !121
  %92 = getelementptr inbounds nuw i8, ptr %88, i64 %91
  %93 = load ptr, ptr %12, align 8, !tbaa !12
  %94 = load i64, ptr %11, align 8, !tbaa !14
  call void @llvm.memcpy.p0.p0.i64(ptr align 1 %92, ptr align 1 %93, i64 %94, i1 false)
  %95 = load i64, ptr %11, align 8, !tbaa !14
  %96 = load ptr, ptr %12, align 8, !tbaa !12
  %97 = getelementptr inbounds nuw i8, ptr %96, i64 %95
  store ptr %97, ptr %12, align 8, !tbaa !12
  %98 = load i64, ptr %11, align 8, !tbaa !14
  %99 = load ptr, ptr %8, align 8, !tbaa !105
  %100 = getelementptr inbounds nuw %struct.tsi_fake_frame, ptr %99, i32 0, i32 3
  %101 = load i64, ptr %100, align 8, !tbaa !121
  %102 = add i64 %101, %98
  store i64 %102, ptr %100, align 8, !tbaa !121
  %103 = load i64, ptr %11, align 8, !tbaa !14
  %104 = load i64, ptr %10, align 8, !tbaa !14
  %105 = sub i64 %104, %103
  store i64 %105, ptr %10, align 8, !tbaa !14
  %106 = load ptr, ptr %8, align 8, !tbaa !105
  %107 = getelementptr inbounds nuw %struct.tsi_fake_frame, ptr %106, i32 0, i32 0
  %108 = load ptr, ptr %107, align 8, !tbaa !107
  %109 = call noundef i32 @_ZL20load32_little_endianPKh(ptr noundef %108)
  %110 = zext i32 %109 to i64
  %111 = load ptr, ptr %8, align 8, !tbaa !105
  %112 = getelementptr inbounds nuw %struct.tsi_fake_frame, ptr %111, i32 0, i32 1
  store i64 %110, ptr %112, align 8, !tbaa !122
  %113 = load ptr, ptr %8, align 8, !tbaa !105
  %114 = getelementptr inbounds nuw %struct.tsi_fake_frame, ptr %113, i32 0, i32 1
  %115 = load i64, ptr %114, align 8, !tbaa !122
  %116 = icmp ult i64 %115, 4
  br i1 %116, label %117, label %118

117:                                              ; preds = %85
  store i32 8, ptr %5, align 4
  store i32 1, ptr %13, align 4
  br label %181

118:                                              ; preds = %85
  %119 = load ptr, ptr %8, align 8, !tbaa !105
  %120 = getelementptr inbounds nuw %struct.tsi_fake_frame, ptr %119, i32 0, i32 1
  %121 = load i64, ptr %120, align 8, !tbaa !122
  %122 = icmp ugt i64 %121, 16777216
  br i1 %122, label %123, label %124

123:                                              ; preds = %118
  store i32 8, ptr %5, align 4
  store i32 1, ptr %13, align 4
  br label %181

124:                                              ; preds = %118
  %125 = load ptr, ptr %8, align 8, !tbaa !105
  call void @_ZL26tsi_fake_frame_ensure_sizeP14tsi_fake_frame(ptr noundef %125)
  br label %126

126:                                              ; preds = %124, %48
  %127 = load ptr, ptr %8, align 8, !tbaa !105
  %128 = getelementptr inbounds nuw %struct.tsi_fake_frame, ptr %127, i32 0, i32 1
  %129 = load i64, ptr %128, align 8, !tbaa !122
  %130 = load ptr, ptr %8, align 8, !tbaa !105
  %131 = getelementptr inbounds nuw %struct.tsi_fake_frame, ptr %130, i32 0, i32 3
  %132 = load i64, ptr %131, align 8, !tbaa !121
  %133 = sub i64 %129, %132
  store i64 %133, ptr %11, align 8, !tbaa !14
  %134 = load i64, ptr %11, align 8, !tbaa !14
  %135 = load i64, ptr %10, align 8, !tbaa !14
  %136 = icmp ugt i64 %134, %135
  br i1 %136, label %137, label %161

137:                                              ; preds = %126
  %138 = load ptr, ptr %8, align 8, !tbaa !105
  %139 = getelementptr inbounds nuw %struct.tsi_fake_frame, ptr %138, i32 0, i32 0
  %140 = load ptr, ptr %139, align 8, !tbaa !107
  %141 = load ptr, ptr %8, align 8, !tbaa !105
  %142 = getelementptr inbounds nuw %struct.tsi_fake_frame, ptr %141, i32 0, i32 3
  %143 = load i64, ptr %142, align 8, !tbaa !121
  %144 = getelementptr inbounds nuw i8, ptr %140, i64 %143
  %145 = load ptr, ptr %12, align 8, !tbaa !12
  %146 = load i64, ptr %10, align 8, !tbaa !14
  call void @llvm.memcpy.p0.p0.i64(ptr align 1 %144, ptr align 1 %145, i64 %146, i1 false)
  %147 = load i64, ptr %10, align 8, !tbaa !14
  %148 = load ptr, ptr %8, align 8, !tbaa !105
  %149 = getelementptr inbounds nuw %struct.tsi_fake_frame, ptr %148, i32 0, i32 3
  %150 = load i64, ptr %149, align 8, !tbaa !121
  %151 = add i64 %150, %147
  store i64 %151, ptr %149, align 8, !tbaa !121
  %152 = load i64, ptr %10, align 8, !tbaa !14
  %153 = load ptr, ptr %12, align 8, !tbaa !12
  %154 = getelementptr inbounds nuw i8, ptr %153, i64 %152
  store ptr %154, ptr %12, align 8, !tbaa !12
  %155 = load ptr, ptr %12, align 8, !tbaa !12
  %156 = load ptr, ptr %6, align 8, !tbaa !12
  %157 = ptrtoint ptr %155 to i64
  %158 = ptrtoint ptr %156 to i64
  %159 = sub i64 %157, %158
  %160 = load ptr, ptr %7, align 8, !tbaa !43
  store i64 %159, ptr %160, align 8, !tbaa !14
  store i32 4, ptr %5, align 4
  store i32 1, ptr %13, align 4
  br label %181

161:                                              ; preds = %126
  %162 = load ptr, ptr %8, align 8, !tbaa !105
  %163 = getelementptr inbounds nuw %struct.tsi_fake_frame, ptr %162, i32 0, i32 0
  %164 = load ptr, ptr %163, align 8, !tbaa !107
  %165 = load ptr, ptr %8, align 8, !tbaa !105
  %166 = getelementptr inbounds nuw %struct.tsi_fake_frame, ptr %165, i32 0, i32 3
  %167 = load i64, ptr %166, align 8, !tbaa !121
  %168 = getelementptr inbounds nuw i8, ptr %164, i64 %167
  %169 = load ptr, ptr %12, align 8, !tbaa !12
  %170 = load i64, ptr %11, align 8, !tbaa !14
  call void @llvm.memcpy.p0.p0.i64(ptr align 1 %168, ptr align 1 %169, i64 %170, i1 false)
  %171 = load i64, ptr %11, align 8, !tbaa !14
  %172 = load ptr, ptr %12, align 8, !tbaa !12
  %173 = getelementptr inbounds nuw i8, ptr %172, i64 %171
  store ptr %173, ptr %12, align 8, !tbaa !12
  %174 = load ptr, ptr %12, align 8, !tbaa !12
  %175 = load ptr, ptr %6, align 8, !tbaa !12
  %176 = ptrtoint ptr %174 to i64
  %177 = ptrtoint ptr %175 to i64
  %178 = sub i64 %176, %177
  %179 = load ptr, ptr %7, align 8, !tbaa !43
  store i64 %178, ptr %179, align 8, !tbaa !14
  %180 = load ptr, ptr %8, align 8, !tbaa !105
  call void @_ZL20tsi_fake_frame_resetP14tsi_fake_framei(ptr noundef %180, i32 noundef 1)
  store i32 0, ptr %5, align 4
  store i32 1, ptr %13, align 4
  br label %181

181:                                              ; preds = %161, %137, %123, %117, %61, %27
  call void @llvm.lifetime.end.p0(i64 8, ptr %12) #3
  call void @llvm.lifetime.end.p0(i64 8, ptr %11) #3
  call void @llvm.lifetime.end.p0(i64 8, ptr %10) #3
  %182 = load i32, ptr %5, align 4
  ret i32 %182
}