; Function Attrs: mustprogress uwtable
define internal fastcc noundef range(i32 0, 9) i32 @_ZL21tsi_fake_frame_decodePKhPmP14tsi_fake_framePNSt7__cxx1112basic_stringIcSt11char_traitsIcESaIcEEE(ptr noundef %0, ptr noundef captures(none) %1, ptr noundef captures(none) %2, ptr noundef %3) unnamed_addr #3 {
  %5 = load i64, ptr %1, align 8, !tbaa !40
  %6 = getelementptr inbounds nuw i8, ptr %2, i64 32
  %7 = load i32, ptr %6, align 8, !tbaa !59
  %.not = icmp eq i32 %7, 0
  br i1 %.not, label %13, label %8

8:                                                ; preds = %4
  %.not74 = icmp eq ptr %3, null
  br i1 %.not74, label %67, label %9

9:                                                ; preds = %8
  %10 = getelementptr inbounds nuw i8, ptr %3, i64 8
  %11 = load i64, ptr %10, align 8, !tbaa !24
  %12 = tail call noundef nonnull align 8 dereferenceable(32) ptr @_ZNSt7__cxx1112basic_stringIcSt11char_traitsIcESaIcEE10_M_replaceEmmPKcm(ptr noundef nonnull align 8 dereferenceable(32) %3, i64 noundef 0, i64 noundef %11, ptr noundef nonnull @.str.12, i64 noundef 36)
  br label %67

13:                                               ; preds = %4
  %14 = load ptr, ptr %2, align 8, !tbaa !54
  %15 = icmp eq ptr %14, null
  br i1 %15, label %16, label %20

16:                                               ; preds = %13
  %17 = getelementptr inbounds nuw i8, ptr %2, i64 16
  store i64 64, ptr %17, align 8, !tbaa !63
  %18 = tail call ptr @gpr_malloc(i64 noundef 64)
  store ptr %18, ptr %2, align 8, !tbaa !54
  %19 = load i64, ptr %17, align 8, !tbaa !63
  tail call void @llvm.memset.p0.i64(ptr align 1 %18, i8 -85, i64 %19, i1 false)
  br label %20

20:                                               ; preds = %16, %13
  %21 = getelementptr inbounds nuw i8, ptr %2, i64 24
  %22 = load i64, ptr %21, align 8, !tbaa !58
  %23 = icmp ult i64 %22, 4
  br i1 %23, label %24, label %._ZL26tsi_fake_frame_ensure_sizeP14tsi_fake_frame.exit_crit_edge

._ZL26tsi_fake_frame_ensure_sizeP14tsi_fake_frame.exit_crit_edge: ; preds = %20
  %.phi.trans.insert = getelementptr inbounds nuw i8, ptr %2, i64 8
  %.pre = load i64, ptr %.phi.trans.insert, align 8, !tbaa !60
  br label %_ZL26tsi_fake_frame_ensure_sizeP14tsi_fake_frame.exit

24:                                               ; preds = %20
  %25 = sub nuw nsw i64 4, %22
  %26 = icmp ugt i64 %25, %5
  %27 = load ptr, ptr %2, align 8, !tbaa !54
  %28 = getelementptr inbounds nuw i8, ptr %27, i64 %22
  br i1 %26, label %29, label %32

29:                                               ; preds = %24
  tail call void @llvm.memcpy.p0.p0.i64(ptr align 1 %28, ptr align 1 %0, i64 %5, i1 false)
  %30 = load i64, ptr %21, align 8, !tbaa !58
  %31 = add i64 %30, %5
  store i64 %31, ptr %21, align 8, !tbaa !58
  store i64 %5, ptr %1, align 8, !tbaa !40
  br label %67

32:                                               ; preds = %24
  tail call void @llvm.memcpy.p0.p0.i64(ptr align 1 %28, ptr align 1 %0, i64 %25, i1 false)
  %33 = getelementptr inbounds nuw i8, ptr %0, i64 %25
  %34 = load i64, ptr %21, align 8, !tbaa !58
  %35 = add i64 %34, %25
  store i64 %35, ptr %21, align 8, !tbaa !58
  %36 = sub nuw i64 %5, %25
  %37 = load ptr, ptr %2, align 8, !tbaa !54
  %38 = load i32, ptr %37, align 1
  %39 = zext i32 %38 to i64
  %40 = getelementptr inbounds nuw i8, ptr %2, i64 8
  store i64 %39, ptr %40, align 8, !tbaa !60
  %41 = add i32 %38, -16777217
  %or.cond = icmp ult i32 %41, -16777213
  br i1 %or.cond, label %67, label %42

42:                                               ; preds = %32
  %43 = getelementptr inbounds nuw i8, ptr %2, i64 16
  %44 = load i64, ptr %43, align 8, !tbaa !63
  %45 = icmp ult i64 %44, %39
  br i1 %45, label %46, label %_ZL26tsi_fake_frame_ensure_sizeP14tsi_fake_frame.exit

46:                                               ; preds = %42
  %47 = tail call ptr @gpr_realloc(ptr noundef nonnull %37, i64 noundef %39)
  store ptr %47, ptr %2, align 8, !tbaa !54
  %48 = load i64, ptr %40, align 8, !tbaa !60
  store i64 %48, ptr %43, align 8, !tbaa !63
  %.pre75 = load i64, ptr %21, align 8, !tbaa !58
  br label %_ZL26tsi_fake_frame_ensure_sizeP14tsi_fake_frame.exit

_ZL26tsi_fake_frame_ensure_sizeP14tsi_fake_frame.exit: ; preds = %._ZL26tsi_fake_frame_ensure_sizeP14tsi_fake_frame.exit_crit_edge, %46, %42
  %49 = phi i64 [ %22, %._ZL26tsi_fake_frame_ensure_sizeP14tsi_fake_frame.exit_crit_edge ], [ %35, %42 ], [ %.pre75, %46 ]
  %50 = phi i64 [ %.pre, %._ZL26tsi_fake_frame_ensure_sizeP14tsi_fake_frame.exit_crit_edge ], [ %39, %42 ], [ %48, %46 ]
  %.066 = phi i64 [ %5, %._ZL26tsi_fake_frame_ensure_sizeP14tsi_fake_frame.exit_crit_edge ], [ %36, %42 ], [ %36, %46 ]
  %.0 = phi ptr [ %0, %._ZL26tsi_fake_frame_ensure_sizeP14tsi_fake_frame.exit_crit_edge ], [ %33, %42 ], [ %33, %46 ]
  %51 = sub i64 %50, %49
  %52 = icmp ugt i64 %51, %.066
  %53 = load ptr, ptr %2, align 8, !tbaa !54
  %54 = getelementptr inbounds nuw i8, ptr %53, i64 %49
  br i1 %52, label %55, label %62

55:                                               ; preds = %_ZL26tsi_fake_frame_ensure_sizeP14tsi_fake_frame.exit
  tail call void @llvm.memcpy.p0.p0.i64(ptr align 1 %54, ptr align 1 %.0, i64 %.066, i1 false)
  %56 = load i64, ptr %21, align 8, !tbaa !58
  %57 = add i64 %56, %.066
  store i64 %57, ptr %21, align 8, !tbaa !58
  %58 = getelementptr inbounds nuw i8, ptr %.0, i64 %.066
  %59 = ptrtoint ptr %58 to i64
  %60 = ptrtoint ptr %0 to i64
  %61 = sub i64 %59, %60
  store i64 %61, ptr %1, align 8, !tbaa !40
  br label %67

62:                                               ; preds = %_ZL26tsi_fake_frame_ensure_sizeP14tsi_fake_frame.exit
  tail call void @llvm.memcpy.p0.p0.i64(ptr align 1 %54, ptr align 1 %.0, i64 %51, i1 false)
  %63 = getelementptr inbounds nuw i8, ptr %.0, i64 %51
  %64 = ptrtoint ptr %63 to i64
  %65 = ptrtoint ptr %0 to i64
  %66 = sub i64 %64, %65
  store i64 %66, ptr %1, align 8, !tbaa !40
  store i64 0, ptr %21, align 8, !tbaa !58
  store i32 1, ptr %6, align 8, !tbaa !59
  br label %67

67:                                               ; preds = %32, %8, %9, %62, %55, %29
  %.067 = phi i32 [ 4, %29 ], [ 4, %55 ], [ 0, %62 ], [ 7, %9 ], [ 7, %8 ], [ 8, %32 ]
  ret i32 %.067
}